; Function Attrs: nounwind sspstrong uwtable
define internal noundef i32 @nhp_range(ptr noundef %rb, ptr readnone captures(none) %opaque) #0 {
entry:
  %_now.i.i = alloca %struct.timeval, align 8
  %call = tail call ptr @qemu_ram_get_idstr(ptr noundef %rb) #16
  %call1 = tail call ptr @qemu_ram_get_host_addr(ptr noundef %rb) #16
  %call2 = tail call i64 @qemu_ram_get_offset(ptr noundef %rb) #16
  %postcopy_length = getelementptr inbounds nuw i8, ptr %rb, i64 416
  %0 = load i64, ptr %postcopy_length, align 8
  call void @llvm.lifetime.start.p0(i64 16, ptr nonnull %_now.i.i)
  %1 = load i32, ptr @trace_events_enabled_count, align 4
  %tobool.i.i = icmp ne i32 %1, 0
  %2 = load i16, ptr @_TRACE_POSTCOPY_NHP_RANGE_DSTATE, align 2
  %tobool4.i.i = icmp ne i16 %2, 0
  %or.cond.i.i = select i1 %tobool.i.i, i1 %tobool4.i.i, i1 false
  br i1 %or.cond.i.i, label %land.lhs.true5.i.i, label %trace_postcopy_nhp_range.exit

land.lhs.true5.i.i:                               ; preds = %entry
  %3 = load i32, ptr @qemu_loglevel, align 4
  %and.i.i.i = and i32 %3, 32768
  %cmp.i.not.i.i = icmp eq i32 %and.i.i.i, 0
  br i1 %cmp.i.not.i.i, label %trace_postcopy_nhp_range.exit, label %if.then.i.i

if.then.i.i:                                      ; preds = %land.lhs.true5.i.i
  %4 = load i8, ptr @message_with_timestamp, align 1
  %tobool7.i.i = trunc i8 %4 to i1
  br i1 %tobool7.i.i, label %if.then8.i.i, label %if.else.i.i

if.then8.i.i:                                     ; preds = %if.then.i.i
  %call9.i.i = call i32 @gettimeofday(ptr noundef nonnull %_now.i.i, ptr noundef null) #16
  %call10.i.i = tail call i32 @qemu_get_thread_id() #16
  %5 = load i64, ptr %_now.i.i, align 8
  %tv_usec.i.i = getelementptr inbounds nuw i8, ptr %_now.i.i, i64 8
  %6 = load i64, ptr %tv_usec.i.i, align 8
  tail call void (ptr, ...) @qemu_log(ptr noundef nonnull @.str.46, i32 noundef %call10.i.i, i64 noundef %5, i64 noundef %6, ptr noundef %call, ptr noundef %call1, i64 noundef %call2, i64 noundef %0) #16
  br label %trace_postcopy_nhp_range.exit

if.else.i.i:                                      ; preds = %if.then.i.i
  tail call void (ptr, ...) @qemu_log(ptr noundef nonnull @.str.47, ptr noundef %call, ptr noundef %call1, i64 noundef %call2, i64 noundef %0) #16
  br label %trace_postcopy_nhp_range.exit

trace_postcopy_nhp_range.exit:                    ; preds = %entry, %land.lhs.true5.i.i, %if.then8.i.i, %if.else.i.i
  call void @llvm.lifetime.end.p0(i64 16, ptr nonnull %_now.i.i)
  %call3 = tail call i32 @qemu_madvise(ptr noundef %call1, i64 noundef %0, i32 noundef 15) #16
  ret i32 0
}